target datalayout = "e-m:e-p270:32:32-p271:32:32-p272:64:64-i64:64-i128:128-f80:128-n8:16:32:64-S128"
target triple = "x86_64-unknown-linux-gnu"

%"class.re2::Regexp" = type { i8, i8, i16, i16, i16, %union.anon, ptr, %union.anon.0 }
%union.anon = type { ptr }
%union.anon.0 = type { %struct.anon.1 }
%struct.anon.1 = type { i32, ptr }
%struct.anon = type { i32, i32 }

; Function Attrs: mustprogress nounwind uwtable
define linkonce_odr noundef i32 @_ZN3re26Regexp3minEv(ptr noundef nonnull align 8 dereferenceable(40) %this) #0 comdat align 2 {
entry:
  %this.addr = alloca ptr, align 8
  store ptr %this, ptr %this.addr, align 8
  %this1 = load ptr, ptr %this.addr, align 8
  %0 = getelementptr inbounds %"class.re2::Regexp", ptr %this1, i32 0, i32 7
  %min_ = getelementptr inbounds %struct.anon, ptr %0, i32 0, i32 1
  %1 = load i32, ptr %min_, align 4
  ret i32 %1
}

; Function Attrs: mustprogress nounwind uwtable
define linkonce_odr noundef i32 @_ZN3re26Regexp3maxEv(ptr noundef nonnull align 8 dereferenceable(40) %this) #0 comdat align 2 {
entry:
  %this.addr = alloca ptr, align 8
  store ptr %this, ptr %this.addr, align 8
  %this1 = load ptr, ptr %this.addr, align 8
  %0 = getelementptr inbounds %"class.re2::Regexp", ptr %this1, i32 0, i32 7
  %max_ = getelementptr inbounds %struct.anon, ptr %0, i32 0, i32 0
  %1 = load i32, ptr %max_, align 8
  ret i32 %1
}

; Function Attrs: mustprogress nounwind uwtable
define linkonce_odr noundef i32 @_ZN3re26Regexp2opEv(ptr noundef nonnull align 8 dereferenceable(40) %this) #0 comdat align 2 {
entry:
  %this.addr = alloca ptr, align 8
  store ptr %this, ptr %this.addr, align 8
  %this1 = load ptr, ptr %this.addr, align 8
  %op_ = getelementptr inbounds %"class.re2::Regexp", ptr %this1, i32 0, i32 0
  %0 = load i8, ptr %op_, align 8
  %conv = zext i8 %0 to i32
  ret i32 %conv
}

; Function Attrs: mustprogress uwtable
define noundef i32 @_ZN3re216RepetitionWalker8PreVisitEPNS_6RegexpEiPb(ptr noundef nonnull align 8 dereferenceable(96) %this, ptr noundef %re, i32 noundef %parent_arg, ptr noundef %stop) unnamed_addr #1 align 2 {
entry:
  %this.addr = alloca ptr, align 8
  %re.addr = alloca ptr, align 8
  %parent_arg.addr = alloca i32, align 4
  %stop.addr = alloca ptr, align 8
  %arg = alloca i32, align 4
  %m = alloca i32, align 4
  store ptr %this, ptr %this.addr, align 8
  store ptr %re, ptr %re.addr, align 8
  store i32 %parent_arg, ptr %parent_arg.addr, align 4
  store ptr %stop, ptr %stop.addr, align 8
  %0 = load i32, ptr %parent_arg.addr, align 4
  store i32 %0, ptr %arg, align 4
  %1 = load ptr, ptr %re.addr, align 8
  %call = call noundef i32 @_ZN3re26Regexp2opEv(ptr noundef nonnull align 8 dereferenceable(40) %1)
  %cmp = icmp eq i32 %call, 10
  br i1 %cmp, label %if.then, label %if.end9

if.then:                                          ; preds = %entry
  %2 = load ptr, ptr %re.addr, align 8
  %call2 = call noundef i32 @_ZN3re26Regexp3maxEv(ptr noundef nonnull align 8 dereferenceable(40) %2)
  store i32 %call2, ptr %m, align 4
  %3 = load i32, ptr %m, align 4
  %cmp3 = icmp slt i32 %3, 0
  br i1 %cmp3, label %if.then4, label %if.end

if.then4:                                         ; preds = %if.then
  %4 = load ptr, ptr %re.addr, align 8
  %call5 = call noundef i32 @_ZN3re26Regexp3minEv(ptr noundef nonnull align 8 dereferenceable(40) %4)
  store i32 %call5, ptr %m, align 4
  br label %if.end

if.end:                                           ; preds = %if.then4, %if.then
  %5 = load i32, ptr %m, align 4
  %cmp6 = icmp sgt i32 %5, 0
  br i1 %cmp6, label %if.then7, label %if.end8

if.then7:                                         ; preds = %if.end
  %6 = load i32, ptr %m, align 4
  %7 = load i32, ptr %arg, align 4
  %div = sdiv i32 %7, %6
  store i32 %div, ptr %arg, align 4
  br label %if.end8

if.end8:                                          ; preds = %if.then7, %if.end
  br label %if.end9

if.end9:                                          ; preds = %if.end8, %entry
  %8 = load i32, ptr %arg, align 4
  ret i32 %8
}