; Function Attrs: mustprogress nofree norecurse nosync nounwind willreturn memory(argmem: read) uwtable
define noundef i32 @_ZN3re216RepetitionWalker8PreVisitEPNS_6RegexpEiPb(ptr nocapture nonnull readnone align 8 %this, ptr nocapture noundef readonly %re, i32 noundef %parent_arg, ptr nocapture readnone %stop) unnamed_addr #12 align 2 {
entry:
  %0 = load i8, ptr %re, align 8
  %cmp = icmp eq i8 %0, 10
  br i1 %cmp, label %if.then, label %if.end9

if.then:                                          ; preds = %entry
  %1 = getelementptr inbounds i8, ptr %re, i64 24
  %2 = load i32, ptr %1, align 8
  %cmp3 = icmp slt i32 %2, 0
  br i1 %cmp3, label %if.then4, label %if.end

if.then4:                                         ; preds = %if.then
  %min_.i = getelementptr inbounds i8, ptr %re, i64 28
  %3 = load i32, ptr %min_.i, align 4
  br label %if.end

if.end:                                           ; preds = %if.then4, %if.then
  %m.0 = phi i32 [ %3, %if.then4 ], [ %2, %if.then ]
  %cmp6 = icmp sgt i32 %m.0, 0
  br i1 %cmp6, label %if.then7, label %if.end9

if.then7:                                         ; preds = %if.end
  %div = sdiv i32 %parent_arg, %m.0
  br label %if.end9

if.end9:                                          ; preds = %if.end, %if.then7, %entry
  %arg.0 = phi i32 [ %div, %if.then7 ], [ %parent_arg, %if.end ], [ %parent_arg, %entry ]
  ret i32 %arg.0
}